; Function Attrs: mustprogress nofree norecurse nosync nounwind willreturn memory(readwrite, inaccessiblemem: none) uwtable
define dso_local ptr @lua_getupvalue(ptr noundef captures(none) %0, i32 noundef %1, i32 noundef %2) local_unnamed_addr #6 {
  %4 = icmp sgt i32 %1, 0
  br i1 %4, label %5, label %13

5:                                                ; preds = %3
  %6 = getelementptr inbounds nuw i8, ptr %0, i64 24
  %7 = load ptr, ptr %6, align 8, !tbaa !21
  %8 = zext nneg i32 %1 to i64
  %9 = getelementptr %struct.lua_TValue, ptr %7, i64 %8
  %10 = getelementptr i8, ptr %9, i64 -16
  %11 = getelementptr inbounds nuw i8, ptr %0, i64 16
  %12 = load ptr, ptr %11, align 8, !tbaa !4
  %.not28.i = icmp ult ptr %10, %12
  %.luaO_nilobject_.i = select i1 %.not28.i, ptr %10, ptr @luaO_nilobject_
  br label %index2adr.exit

13:                                               ; preds = %3
  %14 = icmp sgt i32 %1, -10000
  br i1 %14, label %15, label %20

15:                                               ; preds = %13
  %16 = getelementptr inbounds nuw i8, ptr %0, i64 16
  %17 = load ptr, ptr %16, align 8, !tbaa !4
  %18 = sext i32 %1 to i64
  %19 = getelementptr inbounds %struct.lua_TValue, ptr %17, i64 %18
  br label %index2adr.exit

20:                                               ; preds = %13
  switch i32 %1, label %37 [
    i32 -10000, label %21
    i32 -10001, label %25
    i32 -10002, label %35
  ]

21:                                               ; preds = %20
  %22 = getelementptr inbounds nuw i8, ptr %0, i64 32
  %23 = load ptr, ptr %22, align 8, !tbaa !29
  %24 = getelementptr inbounds nuw i8, ptr %23, i64 160
  br label %index2adr.exit

25:                                               ; preds = %20
  %26 = getelementptr inbounds nuw i8, ptr %0, i64 40
  %27 = load ptr, ptr %26, align 8, !tbaa !23
  %28 = getelementptr inbounds nuw i8, ptr %27, i64 8
  %29 = load ptr, ptr %28, align 8, !tbaa !41
  %30 = load ptr, ptr %29, align 8, !tbaa !19
  %31 = getelementptr inbounds nuw i8, ptr %0, i64 136
  %32 = getelementptr inbounds nuw i8, ptr %30, i64 24
  %33 = load ptr, ptr %32, align 8, !tbaa !19
  store ptr %33, ptr %31, align 8, !tbaa !19
  %34 = getelementptr inbounds nuw i8, ptr %0, i64 144
  store i32 5, ptr %34, align 8, !tbaa !20
  br label %index2adr.exit

35:                                               ; preds = %20
  %36 = getelementptr inbounds nuw i8, ptr %0, i64 120
  br label %index2adr.exit

37:                                               ; preds = %20
  %38 = getelementptr inbounds nuw i8, ptr %0, i64 40
  %39 = load ptr, ptr %38, align 8, !tbaa !23
  %40 = getelementptr inbounds nuw i8, ptr %39, i64 8
  %41 = load ptr, ptr %40, align 8, !tbaa !41
  %42 = load ptr, ptr %41, align 8, !tbaa !19
  %43 = sub nuw nsw i32 -10002, %1
  %44 = getelementptr inbounds nuw i8, ptr %42, i64 11
  %45 = load i8, ptr %44, align 1, !tbaa !19
  %46 = zext i8 %45 to i32
  %.not.i = icmp samesign ugt i32 %43, %46
  %47 = getelementptr inbounds nuw i8, ptr %42, i64 40
  %48 = sub nuw nsw i32 -10003, %1
  %49 = zext nneg i32 %48 to i64
  %50 = getelementptr inbounds nuw [1 x %struct.lua_TValue], ptr %47, i64 0, i64 %49
  %51 = select i1 %.not.i, ptr @luaO_nilobject_, ptr %50
  br label %index2adr.exit

index2adr.exit:                                   ; preds = %5, %15, %21, %25, %35, %37
  %.1.i = phi ptr [ %.luaO_nilobject_.i, %5 ], [ %19, %15 ], [ %51, %37 ], [ %36, %35 ], [ %31, %25 ], [ %24, %21 ]
  %52 = getelementptr inbounds nuw i8, ptr %.1.i, i64 8
  %53 = load i32, ptr %52, align 8, !tbaa !20
  %54 = icmp eq i32 %53, 6
  br i1 %54, label %55, label %aux_upvalue.exit.thread

55:                                               ; preds = %index2adr.exit
  %56 = load ptr, ptr %.1.i, align 8, !tbaa !19
  %57 = getelementptr inbounds nuw i8, ptr %56, i64 10
  %58 = load i8, ptr %57, align 2, !tbaa !19
  %.not.i10 = icmp eq i8 %58, 0
  br i1 %.not.i10, label %70, label %59

59:                                               ; preds = %55
  %60 = icmp sgt i32 %2, 0
  br i1 %60, label %61, label %aux_upvalue.exit.thread

61:                                               ; preds = %59
  %62 = getelementptr inbounds nuw i8, ptr %56, i64 11
  %63 = load i8, ptr %62, align 1, !tbaa !19
  %64 = zext i8 %63 to i32
  %.not20.i = icmp samesign ugt i32 %2, %64
  br i1 %.not20.i, label %aux_upvalue.exit.thread, label %65

65:                                               ; preds = %61
  %66 = getelementptr inbounds nuw i8, ptr %56, i64 40
  %67 = add nsw i32 %2, -1
  %68 = zext nneg i32 %67 to i64
  %69 = getelementptr inbounds nuw [1 x %struct.lua_TValue], ptr %66, i64 0, i64 %68
  br label %aux_upvalue.exit

70:                                               ; preds = %55
  %71 = getelementptr inbounds nuw i8, ptr %56, i64 32
  %72 = load ptr, ptr %71, align 8, !tbaa !19
  %73 = icmp sgt i32 %2, 0
  br i1 %73, label %74, label %aux_upvalue.exit.thread

74:                                               ; preds = %70
  %75 = getelementptr inbounds nuw i8, ptr %72, i64 72
  %76 = load i32, ptr %75, align 8, !tbaa !66
  %.not19.i = icmp sgt i32 %2, %76
  br i1 %.not19.i, label %aux_upvalue.exit.thread, label %77

77:                                               ; preds = %74
  %78 = getelementptr inbounds nuw i8, ptr %56, i64 40
  %79 = add nsw i32 %2, -1
  %80 = zext nneg i32 %79 to i64
  %81 = getelementptr inbounds nuw [1 x ptr], ptr %78, i64 0, i64 %80
  %82 = load ptr, ptr %81, align 8, !tbaa !19
  %83 = getelementptr inbounds nuw i8, ptr %82, i64 16
  %84 = load ptr, ptr %83, align 8, !tbaa !72
  %85 = getelementptr inbounds nuw i8, ptr %72, i64 56
  %86 = load ptr, ptr %85, align 8, !tbaa !73
  %87 = getelementptr inbounds nuw ptr, ptr %86, i64 %80
  %88 = load ptr, ptr %87, align 8, !tbaa !74
  %89 = getelementptr inbounds nuw i8, ptr %88, i64 24
  br label %aux_upvalue.exit

aux_upvalue.exit:                                 ; preds = %77, %65
  %.0 = phi ptr [ %84, %77 ], [ %69, %65 ]
  %.0.i = phi ptr [ %89, %77 ], [ @.str.4, %65 ]
  %90 = getelementptr inbounds nuw i8, ptr %0, i64 16
  %91 = load ptr, ptr %90, align 8, !tbaa !4
  %92 = load i64, ptr %.0, align 8, !tbaa !19
  store i64 %92, ptr %91, align 8, !tbaa !19
  %93 = getelementptr inbounds nuw i8, ptr %.0, i64 8
  %94 = load i32, ptr %93, align 8, !tbaa !20
  %95 = getelementptr inbounds nuw i8, ptr %91, i64 8
  store i32 %94, ptr %95, align 8, !tbaa !20
  %96 = load ptr, ptr %90, align 8, !tbaa !4
  %97 = getelementptr inbounds nuw i8, ptr %96, i64 16
  store ptr %97, ptr %90, align 8, !tbaa !4
  br label %aux_upvalue.exit.thread

aux_upvalue.exit.thread:                          ; preds = %70, %74, %59, %61, %index2adr.exit, %aux_upvalue.exit
  %.0.i14 = phi ptr [ %.0.i, %aux_upvalue.exit ], [ null, %index2adr.exit ], [ null, %61 ], [ null, %59 ], [ null, %74 ], [ null, %70 ]
  ret ptr %.0.i14
}